(dp1
S'Share2Flickr'
p2
S'flickr'
p3
sS'mpeg2-process'
p4
S'mpeg2-process'
p5
sS'VideoFix.Stabilizer'
p6
S'video_fixes'
p7
sS'CreateScreensaver'
p8
S'other'
p9
sS'PhotoEffect.Vignette'
p10
S'photo_effects'
p11
sS'CM.AutoMovieStyleNum'
p12
S'video_styles'
p13
sS'PhotoFix.Straighten'
p14
S'photo_fixes'
p15
sS'BDVD.Slideshow.Motion'
p16
S'create_DVD'
p17
sS'ImportDV'
p18
S'dv_import'
p19
sS'CM.ProduceMPEG2'
p20
S'output_mpeg2'
p21
sS'Slideshow.Motion'
p22
S'slideshow_styles'
p23
sS'PhotoEffect.FocalBW'
p24
S'photo_effects'
p25
sS'PhotoEffect.SoftFocus'
p26
S'photo_effects'
p27
sS'MaxAlbumNum'
p28
S'albums'
p29
sS'BurnDVD'
p30
S'create_DVD'
p31
sS'CM.MixBgMusic'
p32
S'mix_music'
p33
sS'PhotoEffect.BW'
p34
S'photo_effects'
p35
sS'BatchEdit'
p36
S'batch_edit'
p37
sS'PlayDVRMS'
p38
S'mpeg2-dvrms'
p39
sS'PhotoFix.RemoveRedEye'
p40
S'photo_fixes'
p41
sS'BDVD.Slideshow.Fade'
p42
S'create_DVD'
p43
sS'BDVD.Slideshow.Cell'
p44
S'create_DVD'
p45
sS'PlayMPEG2'
p46
S'mpeg2-dvrms'
p47
sS'PhotoTuning'
p48
S'photo_finetuning'
p49
sS'Slideshow.Fade'
p50
S'slideshow_styles'
p51
sS'VideoFix.AudioNoise'
p52
S'video_fixes'
p53
sS'PhotoFix.Crop'
p54
S'photo_fixes'
p55
sS'BDVD.MenuStyleNum'
p56
S'create_DVD'
p57
sS'PhotoEffect.Tint'
p58
S'photo_effects'
p59
sS'PhotoEffect.Antique'
p60
S'photo_effects'
p61
sS'BDVD_BurnDVD'
p62
S'create_DVD'
p63
sS'PopVideoPOU'
p64
S'video_main'
p65
sS'ChangeSkinRT'
p66
S'skins'
p67
sS'Slideshow.Cell'
p68
S'slideshow_styles'
p69
sS'VideoTuning'
p70
S'video_finetuning'
p71
sS'VideoFix.Lighting'
p72
S'video_fixes'
p73
sS'Screensaver.Motion'
p74
S'screensaver_styles'
p75
sS'PhotoEffect.Glow'
p76
S'photo_effects'
p77
sS'Screensaver.Fade'
p78
S'screensaver_styles'
p79
sS'EditLog'
p80
S'editing-history'
p81
sS'BurnBDMV'
p82
S'burn-bd-disc'
p83
sS'VideoDenoise'
p84
S'video_denoise'
p85
sS'Screensaver.Cell'
p86
S'screensaver_styles'
p87
sS'PhotoEffect.Matt'
p88
S'photo_effects'
p89
sS'PhotoEffect.Sepia'
p90
S'photo_effects'
p91
sS'BurnAVCHD'
p92
S'burn-avchd-disc'
p93
sS'CreateSlideshowMovie'
p94
S'slideshow_video'
p95
s.