(dp1
S'latestInterface'
p2
(dp3
S'IOpenStreetMapService'
p4
(isubsys
InterfaceEntry
p5
(dp6
S'moduleName'
p7
S'NetService'
p8
sS'interfaceName'
p9
g4
sS'interfaceIdx'
p10
I5
sS'initFunction'
p11
NsS'bInit'
p12
I00
sS'version'
p13
F0.10000000000000001
sS'interface'
p14
NsS'clone'
p15
NsbsS'IPyFusionEngine'
p16
(isubsys
InterfaceEntry
p17
(dp18
g7
S'PyFusionEngine'
p19
sg9
g16
sg10
I0
sg11
Nsg12
I00
sg13
F1
sg14
Nsg15
NsbsS'IUACAgent'
p20
(isubsys
InterfaceEntry
p21
(dp22
g7
S'UACAgent'
p23
sg9
g20
sg10
I0
sg11
Nsg12
I00
sg13
F0.10000000000000001
sg14
Nsg15
NsbsS'IMuiTransfer'
p24
(isubsys
InterfaceEntry
p25
(dp26
g7
S'MuiTransfer'
p27
sg9
g24
sg10
I0
sg11
Nsg12
I00
sg13
F0.10000000000000001
sg14
Nsg15
NsbsS'IFlickrModule'
p28
(isubsys
InterfaceEntry
p29
(dp30
g7
S'PyFlickr'
p31
sg9
g28
sg10
I0
sg11
Nsg12
I00
sg13
F1
sg14
Nsg15
NsbsS'IMapServiceWrapper'
p32
(isubsys
InterfaceEntry
p33
(dp34
g7
g8
sg9
g32
sg10
I8
sg11
Nsg12
I00
sg13
F0.10000000000000001
sg14
Nsg15
NsbsS'IUNOMgr'
p35
(isubsys
InterfaceEntry
p36
(dp37
g7
S'UNOMgr'
p38
sg9
g35
sg10
I0
sg11
Nsg12
I00
sg13
F0.10000000000000001
sg14
Nsg15
NsbsS'IEventService'
p39
(isubsys
InterfaceEntry
p40
(dp41
g7
g8
sg9
g39
sg10
I6
sg11
Nsg12
I00
sg13
F0.10000000000000001
sg14
Nsg15
NsbsS'IDVRecorder'
p42
(isubsys
InterfaceEntry
p43
(dp44
g7
S'DVRec'
p45
sg9
g42
sg10
I0
sg11
Nsg12
I00
sg13
F0.10000000000000001
sg14
Nsg15
NsbsS'IGoogleWebService'
p46
(isubsys
InterfaceEntry
p47
(dp48
g7
g8
sg9
g46
sg10
I3
sg11
Nsg12
I00
sg13
F0.10000000000000001
sg14
Nsg15
NsbsS'ILenovoYogaSensor'
p49
(isubsys
InterfaceEntry
p50
(dp51
g7
S'SensorsAPI'
p52
sg9
g49
sg10
I0
sg11
Nsg12
I00
sg13
F0.10000000000000001
sg14
Nsg15
NsbsS'IPhotoGroupingBase'
p53
(isubsys
InterfaceEntry
p54
(dp55
g7
S'BasicGrouping'
p56
sg9
g53
sg10
I1
sg11
Nsg12
I00
sg13
F0.10000000000000001
sg14
Nsg15
NsbsS'INetServWrapper'
p57
(isubsys
InterfaceEntry
p58
(dp59
g7
g8
sg9
g57
sg10
I0
sg11
Nsg12
I00
sg13
F0.10000000000000001
sg14
Nsg15
NsbsS'IFaceME'
p60
(isubsys
InterfaceEntry
p61
(dp62
g7
S'FaceME'
p63
sg9
g60
sg10
I0
sg11
Nsg12
I00
sg13
F0.10000000000000001
sg14
Nsg15
NsbsS'IPlazaCreate'
p64
(isubsys
InterfaceEntry
p65
(dp66
g7
S'MediaShare'
p67
sg9
g64
sg10
I5
sg11
Nsg12
I00
sg13
F0.20000000000000001
sg14
Nsg15
NsbsS'IPyDataReaper'
p68
(isubsys
InterfaceEntry
p69
(dp70
g7
S'PyDataReaper'
p71
sg9
g68
sg10
I0
sg11
Nsg12
I00
sg13
F1
sg14
Nsg15
NsbsS'IPyYouTubeUtil'
p72
(isubsys
InterfaceEntry
p73
(dp74
g7
S'PyYouTubeUtil'
p75
sg9
g72
sg10
I0
sg11
Nsg12
I00
sg13
F0.10000000000000001
sg14
Nsg15
NsbsS'IPyUIExt'
p76
(isubsys
InterfaceEntry
p77
(dp78
g7
S'PyUIExt'
p79
sg9
g76
sg10
I0
sg11
Nsg12
I00
sg13
F0.10000000000000001
sg14
Nsg15
NsbsS'IMediaLib'
p80
(isubsys
InterfaceEntry
p81
(dp82
g7
S'PyMediaLib'
p83
sg9
g80
sg10
I0
sg11
Nsg12
I00
sg13
F0.10000000000000001
sg14
Nsg15
NsbsS'IOnlineMgr'
p84
(isubsys
InterfaceEntry
p85
(dp86
g7
S'PyOnlineMgr'
p87
sg9
g84
sg10
I0
sg11
Nsg12
I00
sg13
F1
sg14
Nsg15
NsbsS'IShellLib'
p88
(isubsys
InterfaceEntry
p89
(dp90
g7
S'ShellLib'
p91
sg9
g88
sg10
I0
sg11
Nsg12
I00
sg13
F0.10000000000000001
sg14
Nsg15
NsbsS'IMediaType'
p92
(isubsys
InterfaceEntry
p93
(dp94
g7
S'CESSystem'
p95
sg9
g92
sg10
I0
sg11
Nsg12
I00
sg13
F0.10000000000000001
sg14
Nsg15
NsbsS'IVirtualKeyboard'
p96
(isubsys
InterfaceEntry
p97
(dp98
g7
S'VirtualKeyboard'
p99
sg9
g96
sg10
I0
sg11
Nsg12
I00
sg13
F0.10000000000000001
sg14
Nsg15
NsbsS'IMonitorDetector'
p100
(isubsys
InterfaceEntry
p101
(dp102
g7
S'PyDeviceManager'
p103
sg9
g100
sg10
I5
sg11
Nsg12
I00
sg13
F0.10000000000000001
sg14
Nsg15
NsbsS'ISimEditor'
p104
(isubsys
InterfaceEntry
p105
(dp106
g7
S'SimEditor'
p107
sg9
g104
sg10
I0
sg11
Nsg12
I00
sg13
F0.10000000000000001
sg14
Nsg15
NsbsS'ISuspendBlocker'
p108
(isubsys
InterfaceEntry
p109
(dp110
g7
g103
sg9
g108
sg10
I4
sg11
Nsg12
I00
sg13
F0.10000000000000001
sg14
Nsg15
NsbsS'IFakeGrouping'
p111
(isubsys
InterfaceEntry
p112
(dp113
g7
g56
sg9
g111
sg10
I3
sg11
Nsg12
I00
sg13
F0.10000000000000001
sg14
Nsg15
NsbsS'ISocialService'
p114
(isubsys
InterfaceEntry
p115
(dp116
g7
g8
sg9
g114
sg10
I1
sg11
Nsg12
I00
sg13
F0.10000000000000001
sg14
Nsg15
NsbsS'IDataCenter'
p117
(isubsys
InterfaceEntry
p118
(dp119
g7
S'DataCenter'
p120
sg9
g117
sg10
I0
sg11
Nsg12
I00
sg13
F0.10000000000000001
sg14
Nsg15
NsbsS'IStereoDef'
p121
(isubsys
InterfaceEntry
p122
(dp123
g7
S'Stereo'
p124
sg9
g121
sg10
I0
sg11
Nsg12
I00
sg13
F0.10000000000000001
sg14
Nsg15
NsbsS'IPyMediaInfo'
p125
(isubsys
InterfaceEntry
p126
(dp127
g7
S'PyMediaInfo'
p128
sg9
g125
sg10
I0
sg11
Nsg12
I00
sg13
F0.10000000000000001
sg14
Nsg15
NsbsS'IVideoSave'
p129
(isubsys
InterfaceEntry
p130
(dp131
g7
S'VideoConvert'
p132
sg9
g129
sg10
I1
sg11
Nsg12
I00
sg13
F0.10000000000000001
sg14
Nsg15
NsbsS'IDaVinciPath'
p133
(isubsys
InterfaceEntry
p134
(dp135
g7
S'DaVinci'
p136
sg9
g133
sg10
I0
sg11
Nsg12
I00
sg13
F0.10000000000000001
sg14
Nsg15
NsbsS'IWpdAPI'
p137
(isubsys
InterfaceEntry
p138
(dp139
g7
S'WpdAPI'
p140
sg9
g137
sg10
I0
sg11
Nsg12
I00
sg13
F0.10000000000000001
sg14
Nsg15
NsbsS'IBigBang'
p141
(isubsys
InterfaceEntry
p142
(dp143
g7
S'BigBangAgent'
p144
sg9
g141
sg10
I0
sg11
Nsg12
I00
sg13
F0.10000000000000001
sg14
Nsg15
NsbsS'IBaiduWebService'
p145
(isubsys
InterfaceEntry
p146
(dp147
g7
g8
sg9
g145
sg10
I4
sg11
Nsg12
I00
sg13
F0.10000000000000001
sg14
Nsg15
NsbsS'IVideoEditor'
p148
(isubsys
InterfaceEntry
p149
(dp150
g7
S'VideoEditor'
p151
sg9
g148
sg10
I0
sg11
Nsg12
I00
sg13
F0.10000000000000001
sg14
Nsg15
NsbsS'ICoProcess'
p152
(isubsys
InterfaceEntry
p153
(dp154
g7
S'CoProcess'
p155
sg9
g152
sg10
I0
sg11
Nsg12
I00
sg13
F0.10000000000000001
sg14
Nsg15
NsbsS'IChooseColor'
p156
(isubsys
InterfaceEntry
p157
(dp158
g7
S'PhotoEdit'
p159
sg9
g156
sg10
I0
sg11
Nsg12
I00
sg13
F0.10000000000000001
sg14
Nsg15
NsbsS'IShellOp'
p160
(isubsys
InterfaceEntry
p161
(dp162
g7
S'ShellOp'
p163
sg9
g160
sg10
I0
sg11
Nsg12
I00
sg13
F0.20000000000000001
sg14
Nsg15
NsbsS'IFlickr'
p164
(isubsys
InterfaceEntry
p165
(dp166
g7
g67
sg9
g164
sg10
I0
sg11
Nsg12
I00
sg13
F0.20000000000000001
sg14
Nsg15
NsbsS'IAnimSticky'
p167
(isubsys
InterfaceEntry
p168
(dp169
g7
S'CustomInterpolator'
p170
sg9
g167
sg10
I1
sg11
Nsg12
I00
sg13
F0.10000000000000001
sg14
Nsg15
NsbsS'IPyCodecAct'
p171
(isubsys
InterfaceEntry
p172
(dp173
g7
S'PyCA'
p174
sg9
g171
sg10
I0
sg11
Nsg12
I00
sg13
F0.10000000000000001
sg14
Nsg15
NsbsS'IThumbServer'
p175
(isubsys
InterfaceEntry
p176
(dp177
g7
S'ThumbServer'
p178
sg9
g175
sg10
I0
sg11
Nsg12
I00
sg13
F0.10000000000000001
sg14
Nsg15
NsbsS'IPyImage'
p179
(isubsys
InterfaceEntry
p180
(dp181
g7
S'PyImage'
p182
sg9
g179
sg10
I0
sg11
Nsg12
I00
sg13
F0.10000000000000001
sg14
Nsg15
NsbsS'IAnimClamp'
p183
(isubsys
InterfaceEntry
p184
(dp185
g7
g170
sg9
g183
sg10
I2
sg11
Nsg12
I00
sg13
F0.10000000000000001
sg14
Nsg15
NsbsS'IRandomPhotoGrouping'
p186
(isubsys
InterfaceEntry
p187
(dp188
g7
g56
sg9
g186
sg10
I2
sg11
Nsg12
I00
sg13
F0.10000000000000001
sg14
Nsg15
NsbsS'IDVRSConverter'
p189
(isubsys
InterfaceEntry
p190
(dp191
g7
S'DVRSConverter'
p192
sg9
g189
sg10
I0
sg11
Nsg12
I00
sg13
F0.10000000000000001
sg14
Nsg15
NsbsS'IFontDetector'
p193
(isubsys
InterfaceEntry
p194
(dp195
g7
g103
sg9
g193
sg10
I6
sg11
Nsg12
I00
sg13
F0.10000000000000001
sg14
Nsg15
NsbsS'IFujiFilm'
p196
(isubsys
InterfaceEntry
p197
(dp198
g7
g67
sg9
g196
sg10
I6
sg11
Nsg12
I00
sg13
F0.20000000000000001
sg14
Nsg15
NsbsS'IFacebook'
p199
(isubsys
InterfaceEntry
p200
(dp201
g7
g67
sg9
g199
sg10
I2
sg11
Nsg12
I00
sg13
F0.20000000000000001
sg14
Nsg15
NsbsS'IAudioControl'
p202
(isubsys
InterfaceEntry
p203
(dp204
g7
S'AudioBox'
p205
sg9
g202
sg10
I1
sg11
Nsg12
I00
sg13
F0.10000000000000001
sg14
Nsg15
NsbsS'ISlideshowVideoProducer'
p206
(isubsys
InterfaceEntry
p207
(dp208
g7
S'SlideshowVideoProducer'
p209
sg9
g206
sg10
I0
sg11
Nsg12
I00
sg13
F1
sg14
Nsg15
NsbsS'IYouTube'
p210
(isubsys
InterfaceEntry
p211
(dp212
g7
g67
sg9
g210
sg10
I1
sg11
Nsg12
I00
sg13
F0.20000000000000001
sg14
Nsg15
NsbsS'IIPCountryService'
p213
(isubsys
InterfaceEntry
p214
(dp215
g7
g8
sg9
g213
sg10
I7
sg11
Nsg12
I00
sg13
F0.10000000000000001
sg14
Nsg15
NsbsS'IAudioBox'
p216
(isubsys
InterfaceEntry
p217
(dp218
g7
g205
sg9
g216
sg10
I0
sg11
Nsg12
I00
sg13
F0.10000000000000001
sg14
Nsg15
NsbsS'IBigBangAgent'
p219
(isubsys
InterfaceEntry
p220
(dp221
g7
g144
sg9
g219
sg10
I1
sg11
Nsg12
I00
sg13
F0.10000000000000001
sg14
Nsg15
NsbsS'ICESTitle'
p222
(isubsys
InterfaceEntry
p223
(dp224
g7
S'CES'
p225
sg9
g222
sg10
I1
sg11
Nsg12
I00
sg13
F0.10000000000000001
sg14
Nsg15
NsbsS'IShutterfly'
p226
(isubsys
InterfaceEntry
p227
(dp228
g7
g67
sg9
g226
sg10
I4
sg11
Nsg12
I00
sg13
F0.20000000000000001
sg14
Nsg15
NsbsS'IDSCControl'
p229
(isubsys
InterfaceEntry
p230
(dp231
g7
S'DSCControl'
p232
sg9
g229
sg10
I0
sg11
Nsg12
I00
sg13
F0.10000000000000001
sg14
Nsg15
NsbsS'IiTunesSync'
p233
(isubsys
InterfaceEntry
p234
(dp235
g7
S'iTuneSync'
p236
sg9
g233
sg10
I0
sg11
Nsg12
I00
sg13
F0.10000000000000001
sg14
Nsg15
NsbsS'IPhotoGrouping'
p237
(isubsys
InterfaceEntry
p238
(dp239
g7
g136
sg9
g237
sg10
I1
sg11
Nsg12
I00
sg13
F0.10000000000000001
sg14
Nsg15
NsbsS'IFolderMonitor'
p240
(isubsys
InterfaceEntry
p241
(dp242
g7
g103
sg9
g240
sg10
I2
sg11
Nsg12
I00
sg13
F0.10000000000000001
sg14
Nsg15
NsbsS'ISlideShowTransition'
p243
(isubsys
InterfaceEntry
p244
(dp245
g7
S'Transitions'
p246
sg9
g243
sg10
I0
sg11
Nsg12
I00
sg13
F0.10000000000000001
sg14
Nsg15
NsbsS'IFolderQuery'
p247
(isubsys
InterfaceEntry
p248
(dp249
g7
g103
sg9
g247
sg10
I1
sg11
Nsg12
I00
sg13
F0.10000000000000001
sg14
Nsg15
NsbsS'ISingleVideoConvert'
p250
(isubsys
InterfaceEntry
p251
(dp252
g7
S'PySingleVideoConvert'
p253
sg9
g250
sg10
I0
sg11
Nsg12
I00
sg13
F0.10000000000000001
sg14
Nsg15
NsbsS'IPhotoEditEffect'
p254
(isubsys
InterfaceEntry
p255
(dp256
g7
g159
sg9
g254
sg10
I26
sg11
Nsg12
I00
sg13
F0.10000000000000001
sg14
Nsg15
NsbsS'IVideoConvert'
p257
(isubsys
InterfaceEntry
p258
(dp259
g7
g132
sg9
g257
sg10
I0
sg11
Nsg12
I00
sg13
F0.10000000000000001
sg14
Nsg15
NsbsS'IEMailWin'
p260
(isubsys
InterfaceEntry
p261
(dp262
g7
g67
sg9
g260
sg10
I3
sg11
Nsg12
I00
sg13
F0.20000000000000001
sg14
Nsg15
NsbsS'IMetadataAccess'
p263
(isubsys
InterfaceEntry
p264
(dp265
g7
S'MetadataAccess'
p266
sg9
g263
sg10
I0
sg11
Nsg12
I00
sg13
F0.10000000000000001
sg14
Nsg15
NsbsS'ISinaWeibo'
p267
(isubsys
InterfaceEntry
p268
(dp269
g7
S'PySocial'
p270
sg9
g267
sg10
I0
sg11
Nsg12
I00
sg13
F1
sg14
Nsg15
NsbsS'ISliderAnimModule'
p271
(isubsys
InterfaceEntry
p272
(dp273
g7
S'SliderAnim'
p274
sg9
g271
sg10
I0
sg11
Nsg12
I00
sg13
F1
sg14
Nsg15
NsbsS'IAnimSpeed'
p275
(isubsys
InterfaceEntry
p276
(dp277
g7
g170
sg9
g275
sg10
I0
sg11
Nsg12
I00
sg13
F0.10000000000000001
sg14
Nsg15
NsbsS'IPPTSplitter'
p278
(isubsys
InterfaceEntry
p279
(dp280
g7
S'AsyncPPTSplitter'
p281
sg9
g278
sg10
I0
sg11
Nsg12
I00
sg13
F0.10000000000000001
sg14
Nsg15
NsbsS'IDetector'
p282
(isubsys
InterfaceEntry
p283
(dp284
g7
g103
sg9
g282
sg10
I0
sg11
Nsg12
I00
sg13
F0.10000000000000001
sg14
Nsg15
NsbsS'INetKernel'
p285
(isubsys
InterfaceEntry
p286
(dp287
g7
S'NetKernel'
p288
sg9
g285
sg10
I0
sg11
Nsg12
I00
sg13
F0.10000000000000001
sg14
Nsg15
NsbsS'IPrinting'
p289
(isubsys
InterfaceEntry
p290
(dp291
g7
S'Printing'
p292
sg9
g289
sg10
I0
sg11
Nsg12
I00
sg13
F1
sg14
Nsg15
NsbsS'IScrNotifier'
p293
(isubsys
InterfaceEntry
p294
(dp295
g7
g103
sg9
g293
sg10
I7
sg11
Nsg12
I00
sg13
F0.10000000000000001
sg14
Nsg15
NsbsS'IPyWinProc'
p296
(isubsys
InterfaceEntry
p297
(dp298
g7
S'PyWinProc'
p299
sg9
g296
sg10
I0
sg11
Nsg12
I00
sg13
F0.10000000000000001
sg14
Nsg15
NsbsS'IPlatform'
p300
(isubsys
InterfaceEntry
p301
(dp302
g7
S'Platform'
p303
sg9
g300
sg10
I0
sg11
Nsg12
I00
sg13
F0.20000000000000001
sg14
Nsg15
NsbsS'IPyToastEngine'
p304
(isubsys
InterfaceEntry
p305
(dp306
g7
S'PyToastEngine'
p307
sg9
g304
sg10
I0
sg11
Nsg12
I00
sg13
F1
sg14
Nsg15
NsbsS'IMediaObj'
p308
(isubsys
InterfaceEntry
p309
(dp310
g7
S'PyMediaObj'
p311
sg9
g308
sg10
I0
sg11
Nsg12
I00
sg13
F0.10000000000000001
sg14
Nsg15
NsbsS'ICESPath'
p312
(isubsys
InterfaceEntry
p313
(dp314
g7
g225
sg9
g312
sg10
I0
sg11
Nsg12
I00
sg13
F0.10000000000000001
sg14
Nsg15
NsbsS'IRenRen'
p315
(isubsys
InterfaceEntry
p316
(dp317
g7
g270
sg9
g315
sg10
I1
sg11
Nsg12
I00
sg13
F1
sg14
Nsg15
NsbsS'IOrderPrintProvider'
p318
(isubsys
InterfaceEntry
p319
(dp320
g7
S'OrderPrintBuiltin'
p321
sg9
g318
sg10
I1
sg11
Nsg12
I00
sg13
F0.10000000000000001
sg14
Nsg15
NsbsS'IPreventScreenSaver'
p322
(isubsys
InterfaceEntry
p323
(dp324
g7
g103
sg9
g322
sg10
I3
sg11
Nsg12
I00
sg13
F0.10000000000000001
sg14
Nsg15
NsbsS'IIntelCloudService'
p325
(isubsys
InterfaceEntry
p326
(dp327
g7
g8
sg9
g325
sg10
I2
sg11
Nsg12
I00
sg13
F0.10000000000000001
sg14
Nsg15
NsbsS'IMagicSlideShow'
p328
(isubsys
InterfaceEntry
p329
(dp330
g7
S'MagicSlideShow'
p331
sg9
g328
sg10
I0
sg11
Nsg12
I00
sg13
F0.10000000000000001
sg14
Nsg15
NsbsS'ISQLite'
p332
(isubsys
InterfaceEntry
p333
(dp334
g7
S'PySQLite'
p335
sg9
g332
sg10
I0
sg11
Nsg12
I00
sg13
F0.10000000000000001
sg14
Nsg15
NsbsS'ICodecActHelper'
p336
(isubsys
InterfaceEntry
p337
(dp338
g7
g174
sg9
g336
sg10
I1
sg11
Nsg12
I00
sg13
F0.10000000000000001
sg14
Nsg15
NsbsS'ISlideShowEffect'
p339
(isubsys
InterfaceEntry
p340
(dp341
g7
S'FadeSlideShow'
p342
sg9
g339
sg10
I0
sg11
Nsg12
I00
sg13
F0.10000000000000001
sg14
Nsg15
NsbssS'sharedlls'
p343
(lp344
sS'interfaces'
p345
(dp346
g4
(lp347
g5
asg16
(lp348
g17
asg20
(lp349
g21
asg24
(lp350
g25
asg28
(lp351
g29
asg32
(lp352
g33
asg35
(lp353
g36
asg39
(lp354
g40
asg42
(lp355
g43
asg46
(lp356
g47
asg49
(lp357
g50
asg53
(lp358
g54
asg125
(lp359
g126
asg60
(lp360
g61
asg64
(lp361
g65
asg68
(lp362
g69
asg72
(lp363
g73
asg76
(lp364
g77
asg80
(lp365
g81
asg84
(lp366
g85
asg88
(lp367
g89
asg92
(lp368
g93
asg96
(lp369
g97
asg100
(lp370
g101
asg104
(lp371
g105
asg108
(lp372
g109
asg111
(lp373
g112
asg114
(lp374
g115
asg117
(lp375
g118
asg121
(lp376
g122
asg57
(lp377
g58
asg129
(lp378
g130
asg133
(lp379
g134
asg137
(lp380
g138
asg141
(lp381
g142
asg145
(lp382
g146
asg148
(lp383
g149
asg152
(lp384
g153
asg156
(lp385
g157
asg160
(lp386
g161
asg164
(lp387
g165
asg167
(lp388
g168
asg171
(lp389
g172
asg175
(lp390
g176
asg179
(lp391
g180
asg183
(lp392
g184
asg186
(lp393
g187
asg189
(lp394
g190
asg193
(lp395
g194
asg196
(lp396
g197
asg199
(lp397
g200
asg202
(lp398
g203
asg206
(lp399
g207
asg210
(lp400
g211
asg213
(lp401
g214
asg216
(lp402
g217
asg219
(lp403
g220
asg222
(lp404
g223
asg226
(lp405
g227
asg229
(lp406
g230
asg233
(lp407
g234
asg237
(lp408
(isubsys
InterfaceEntry
p409
(dp410
g7
g56
sg9
g237
sg10
I0
sg11
Nsg12
I00
sg13
F0
sg14
Nsg15
Nsbag238
asg240
(lp411
g241
asg243
(lp412
g244
asg247
(lp413
g248
asg250
(lp414
g251
asg254
(lp415
(isubsys
InterfaceEntry
p416
(dp417
g7
g136
sg9
g254
sg10
I2
sg11
Nsg12
I00
sg13
F0.10000000000000001
sg14
Nsg15
Nsba(isubsys
InterfaceEntry
p418
(dp419
g7
g159
sg9
g254
sg10
I1
sg11
Nsg12
I00
sg13
F0.10000000000000001
sg14
Nsg15
Nsba(isubsys
InterfaceEntry
p420
(dp421
g7
g159
sg9
g254
sg10
I2
sg11
Nsg12
I00
sg13
F0.10000000000000001
sg14
Nsg15
Nsba(isubsys
InterfaceEntry
p422
(dp423
g7
g159
sg9
g254
sg10
I3
sg11
Nsg12
I00
sg13
F0.10000000000000001
sg14
Nsg15
Nsba(isubsys
InterfaceEntry
p424
(dp425
g7
g159
sg9
g254
sg10
I4
sg11
Nsg12
I00
sg13
F0.10000000000000001
sg14
Nsg15
Nsba(isubsys
InterfaceEntry
p426
(dp427
g7
g159
sg9
g254
sg10
I5
sg11
Nsg12
I00
sg13
F0.10000000000000001
sg14
Nsg15
Nsba(isubsys
InterfaceEntry
p428
(dp429
g7
g159
sg9
g254
sg10
I6
sg11
Nsg12
I00
sg13
F0.10000000000000001
sg14
Nsg15
Nsba(isubsys
InterfaceEntry
p430
(dp431
g7
g159
sg9
g254
sg10
I7
sg11
Nsg12
I00
sg13
F0.10000000000000001
sg14
Nsg15
Nsba(isubsys
InterfaceEntry
p432
(dp433
g7
g159
sg9
g254
sg10
I8
sg11
Nsg12
I00
sg13
F0.10000000000000001
sg14
Nsg15
Nsba(isubsys
InterfaceEntry
p434
(dp435
g7
g159
sg9
g254
sg10
I9
sg11
Nsg12
I00
sg13
F0.10000000000000001
sg14
Nsg15
Nsba(isubsys
InterfaceEntry
p436
(dp437
g7
g159
sg9
g254
sg10
I10
sg11
Nsg12
I00
sg13
F0.10000000000000001
sg14
Nsg15
Nsba(isubsys
InterfaceEntry
p438
(dp439
g7
g159
sg9
g254
sg10
I11
sg11
Nsg12
I00
sg13
F0.10000000000000001
sg14
Nsg15
Nsba(isubsys
InterfaceEntry
p440
(dp441
g7
g159
sg9
g254
sg10
I12
sg11
Nsg12
I00
sg13
F0.10000000000000001
sg14
Nsg15
Nsba(isubsys
InterfaceEntry
p442
(dp443
g7
g159
sg9
g254
sg10
I13
sg11
Nsg12
I00
sg13
F0.10000000000000001
sg14
Nsg15
Nsba(isubsys
InterfaceEntry
p444
(dp445
g7
g159
sg9
g254
sg10
I14
sg11
Nsg12
I00
sg13
F0.10000000000000001
sg14
Nsg15
Nsba(isubsys
InterfaceEntry
p446
(dp447
g7
g159
sg9
g254
sg10
I15
sg11
Nsg12
I00
sg13
F0.10000000000000001
sg14
Nsg15
Nsba(isubsys
InterfaceEntry
p448
(dp449
g7
g159
sg9
g254
sg10
I16
sg11
Nsg12
I00
sg13
F0.10000000000000001
sg14
Nsg15
Nsba(isubsys
InterfaceEntry
p450
(dp451
g7
g159
sg9
g254
sg10
I17
sg11
Nsg12
I00
sg13
F0.10000000000000001
sg14
Nsg15
Nsba(isubsys
InterfaceEntry
p452
(dp453
g7
g159
sg9
g254
sg10
I18
sg11
Nsg12
I00
sg13
F0.10000000000000001
sg14
Nsg15
Nsba(isubsys
InterfaceEntry
p454
(dp455
g7
g159
sg9
g254
sg10
I19
sg11
Nsg12
I00
sg13
F0.10000000000000001
sg14
Nsg15
Nsba(isubsys
InterfaceEntry
p456
(dp457
g7
g159
sg9
g254
sg10
I20
sg11
Nsg12
I00
sg13
F0.10000000000000001
sg14
Nsg15
Nsba(isubsys
InterfaceEntry
p458
(dp459
g7
g159
sg9
g254
sg10
I21
sg11
Nsg12
I00
sg13
F0.10000000000000001
sg14
Nsg15
Nsba(isubsys
InterfaceEntry
p460
(dp461
g7
g159
sg9
g254
sg10
I22
sg11
Nsg12
I00
sg13
F0.10000000000000001
sg14
Nsg15
Nsba(isubsys
InterfaceEntry
p462
(dp463
g7
g159
sg9
g254
sg10
I23
sg11
Nsg12
I00
sg13
F0.10000000000000001
sg14
Nsg15
Nsba(isubsys
InterfaceEntry
p464
(dp465
g7
g159
sg9
g254
sg10
I24
sg11
Nsg12
I00
sg13
F0.10000000000000001
sg14
Nsg15
Nsba(isubsys
InterfaceEntry
p466
(dp467
g7
g159
sg9
g254
sg10
I25
sg11
Nsg12
I00
sg13
F0.10000000000000001
sg14
Nsg15
Nsbag255
asg257
(lp468
g258
asg260
(lp469
g261
asg263
(lp470
g264
asg267
(lp471
g268
asg271
(lp472
g272
asg275
(lp473
g276
asg278
(lp474
g279
asg282
(lp475
g283
asg285
(lp476
g286
asg289
(lp477
g290
asg293
(lp478
g294
asg296
(lp479
g297
asg300
(lp480
g301
asg304
(lp481
g305
asg308
(lp482
g309
asg312
(lp483
g313
asg315
(lp484
g316
asg318
(lp485
(isubsys
InterfaceEntry
p486
(dp487
g7
g321
sg9
g318
sg10
I0
sg11
Nsg12
I00
sg13
F0.10000000000000001
sg14
Nsg15
Nsbag319
asg322
(lp488
g323
asg325
(lp489
g326
asg328
(lp490
g329
asg332
(lp491
g333
asg336
(lp492
g337
asg339
(lp493
(isubsys
InterfaceEntry
p494
(dp495
g7
S'CellSlideShow'
p496
sg9
g339
sg10
I0
sg11
Nsg12
I00
sg13
F0.10000000000000001
sg14
Nsg15
Nsba(isubsys
InterfaceEntry
p497
(dp498
g7
S'MotionSlideShow'
p499
sg9
g339
sg10
I0
sg11
Nsg12
I00
sg13
F0.10000000000000001
sg14
Nsg15
Nsbag340
assS'mt'
p500
F1403574216.4676476
sg13
F1
sS'modulePath'
p501
(dp502
g56
S'BasicGrouping'
p503
sg163
S'ShellOp'
p504
sg321
S'OrderPrint'
p505
sg178
S'ThumbServer'
p506
sg205
S'AudioBox'
p507
sg63
S'FaceME'
p508
sg311
S'PyMediaObj'
p509
sg174
S'PyCA'
p510
sg67
S'Share'
p511
sg23
S'UACAgent'
p512
sg27
S'Mui'
p513
sg71
S'PyDataReaper'
p514
sg52
S'SensorsAPI'
p515
sg236
S'iTunesSync'
p516
sg31
S'PyFlickr'
p517
sg209
S'SlideshowVideoProducer'
p518
sg496
S'CellSlideShow2'
p519
sg499
S'MotionSlideShow'
p520
sg79
S'PyUIExt'
p521
sg75
S'PyYouTubeUtil'
p522
sg132
S'VideoConvert'
p523
sg136
S'DaVinci'
p524
sg192
S'DVRSConverter'
p525
sg266
S'MetadataAccess'
p526
sg232
S'DSCControl'
p527
sg331
S'MagicSlideShow'
p528
sg225
S'CES'
p529
sg45
S'DVRec'
p530
sg151
S'Video'
p531
sg335
S'pysqlite'
p532
sg140
S'WPD'
p533
sg124
S'Stereo'
p534
sg253
S'PySingleVideoConvert'
p535
sg8
S'NetService'
p536
sg182
S'PyImage'
p537
sg144
S'BigBang'
p538
sg103
S'Device'
p539
sg170
S'CustomInterpolator'
p540
sg292
S'Printing'
p541
sg270
S'PySocial'
p542
sg83
S'PyMediaLib'
p543
sg281
S'PPTSplitter'
p544
sg288
S'NetKernel'
p545
sg95
S'interface'
p546
sg120
S'DataCenter'
p547
sg128
S'PyMediaInfo'
p548
sg303
S'Platform'
p549
sg87
S'PyOnlineMgr'
p550
sg159
S'PhotoEdit'
p551
sg274
S'SliderAnim'
p552
sg342
S'FadeSlideShow'
p553
sg155
S'CoProcess'
p554
sg38
S'UNO'
p555
sg299
S'PyWinProc'
p556
sg91
S'ShellLib'
p557
sg307
S'PyToastEngine'
p558
sg107
S'SimEditor'
p559
sg19
S'PyFusionEngine'
p560
sg246
S'Transitions'
p561
sg99
S'VirtualKeyboard'
p562
ss.